target datalayout = "e-m:e-p270:32:32-p271:32:32-p272:64:64-i64:64-i128:128-f80:128-n8:16:32:64-S128"
target triple = "x86_64-pc-linux-gnu"

%"struct.llvm::detail::PunnedPointer.5" = type { [8 x i8] }
%"class.clang::SourceLocation" = type { i32 }
%"class.clang::NamedDecl" = type { %"class.clang::Decl.base", %"class.clang::DeclarationName" }
%"class.clang::Decl.base" = type <{ ptr, %"class.llvm::PointerIntPair", %"class.llvm::PointerUnion", %"class.clang::SourceLocation", i32, i8 }>
%"class.llvm::PointerIntPair" = type { %"struct.llvm::detail::PunnedPointer" }
%"struct.llvm::detail::PunnedPointer" = type { [8 x i8] }
%"class.llvm::PointerUnion" = type { %"class.llvm::pointer_union_detail::PointerUnionMembers" }
%"class.llvm::pointer_union_detail::PointerUnionMembers" = type { %"class.llvm::pointer_union_detail::PointerUnionMembers.2" }
%"class.llvm::pointer_union_detail::PointerUnionMembers.2" = type { %"class.llvm::pointer_union_detail::PointerUnionMembers.3" }
%"class.llvm::pointer_union_detail::PointerUnionMembers.3" = type { %"class.llvm::PointerIntPair.4" }
%"class.llvm::PointerIntPair.4" = type { %"struct.llvm::detail::PunnedPointer.5" }
%"class.clang::DeclarationName" = type { i64 }
%"class.clang::TypeDecl.base" = type <{ %"class.clang::NamedDecl", ptr, %"class.clang::SourceLocation" }>
%"class.llvm::PointerUnion.395" = type { %"class.llvm::pointer_union_detail::PointerUnionMembers.396" }
%"class.llvm::pointer_union_detail::PointerUnionMembers.396" = type { %"class.llvm::pointer_union_detail::PointerUnionMembers.397" }
%"class.llvm::pointer_union_detail::PointerUnionMembers.397" = type { %"class.llvm::pointer_union_detail::PointerUnionMembers.398" }
%"class.llvm::pointer_union_detail::PointerUnionMembers.398" = type { %"class.llvm::PointerIntPair.399" }
%"class.llvm::PointerIntPair.399" = type { %"struct.llvm::detail::PunnedPointer.5" }
%"class.clang::CXXRecordDecl" = type { %"class.clang::RecordDecl", ptr, %"class.llvm::PointerUnion.460" }
%"class.clang::RecordDecl" = type { %"class.clang::TagDecl" }
%"class.clang::TagDecl" = type { %"class.clang::TypeDecl.base", %"class.clang::DeclContext", %"class.clang::Redeclarable.454", %"class.clang::SourceRange", %"class.llvm::PointerUnion.455" }
%"class.clang::DeclContext" = type { ptr, %union.anon.394, ptr, ptr }
%union.anon.394 = type { %"class.clang::DeclContext::RecordDeclBitfields" }
%"class.clang::DeclContext::RecordDeclBitfields" = type { i64 }
%"class.clang::Redeclarable.454" = type { %"class.clang::Redeclarable<clang::TagDecl>::DeclLink", ptr }
%"class.clang::Redeclarable<clang::TagDecl>::DeclLink" = type { %"class.llvm::PointerUnion.395" }
%"class.clang::SourceRange" = type { %"class.clang::SourceLocation", %"class.clang::SourceLocation" }
%"class.llvm::PointerUnion.455" = type { %"class.llvm::pointer_union_detail::PointerUnionMembers.456" }
%"class.llvm::pointer_union_detail::PointerUnionMembers.456" = type { %"class.llvm::pointer_union_detail::PointerUnionMembers.457" }
%"class.llvm::pointer_union_detail::PointerUnionMembers.457" = type { %"class.llvm::pointer_union_detail::PointerUnionMembers.458" }
%"class.llvm::pointer_union_detail::PointerUnionMembers.458" = type { %"class.llvm::PointerIntPair.459" }
%"class.llvm::PointerIntPair.459" = type { %"struct.llvm::detail::PunnedPointer.5" }
%"class.llvm::PointerUnion.460" = type { %"class.llvm::pointer_union_detail::PointerUnionMembers.461" }
%"class.llvm::pointer_union_detail::PointerUnionMembers.461" = type { %"class.llvm::pointer_union_detail::PointerUnionMembers.462" }
%"class.llvm::pointer_union_detail::PointerUnionMembers.462" = type { %"class.llvm::pointer_union_detail::PointerUnionMembers.463" }
%"class.llvm::pointer_union_detail::PointerUnionMembers.463" = type { %"class.llvm::PointerIntPair.464" }
%"class.llvm::PointerIntPair.464" = type { %"struct.llvm::detail::PunnedPointer.5" }
%"class.llvm::FoldingSetBase::Node" = type { ptr }
%"class.llvm::PointerUnion.465" = type { %"class.llvm::pointer_union_detail::PointerUnionMembers.466" }
%"class.llvm::pointer_union_detail::PointerUnionMembers.466" = type { %"class.llvm::pointer_union_detail::PointerUnionMembers.467" }
%"class.llvm::pointer_union_detail::PointerUnionMembers.467" = type { %"class.llvm::pointer_union_detail::PointerUnionMembers.468" }
%"class.llvm::pointer_union_detail::PointerUnionMembers.468" = type { %"class.llvm::PointerIntPair.469" }
%"class.llvm::PointerIntPair.469" = type { %"struct.llvm::detail::PunnedPointer.5" }
%"class.llvm::PointerUnion.470" = type { %"class.llvm::pointer_union_detail::PointerUnionMembers.471" }
%"class.llvm::pointer_union_detail::PointerUnionMembers.471" = type { %"class.llvm::pointer_union_detail::PointerUnionMembers.472" }
%"class.llvm::pointer_union_detail::PointerUnionMembers.472" = type { %"class.llvm::pointer_union_detail::PointerUnionMembers.473" }
%"class.llvm::pointer_union_detail::PointerUnionMembers.473" = type { %"class.llvm::PointerIntPair.474" }
%"class.llvm::PointerIntPair.474" = type { %"struct.llvm::detail::PunnedPointer.5" }
%"class.clang::ClassTemplateSpecializationDecl" = type <{ %"class.clang::CXXRecordDecl", %"class.llvm::FoldingSetBase::Node", %"class.llvm::PointerUnion.465", %"class.llvm::PointerUnion.470", ptr, %"class.clang::SourceLocation", i8, [3 x i8] }>

; Function Attrs: mustprogress nounwind uwtable
define linkonce_odr hidden noundef nonnull align 8 dereferenceable(8) ptr @_ZN4llvm6detail13PunnedPointerIPvEaSEl(ptr noundef nonnull align 8 dereferenceable(8) %0, i64 noundef %1) #0 comdat align 2 {
  %3 = alloca ptr, align 8
  %4 = alloca i64, align 8
  store ptr %0, ptr %3, align 8
  store i64 %1, ptr %4, align 8
  %5 = load ptr, ptr %3, align 8
  %6 = getelementptr inbounds nuw %"struct.llvm::detail::PunnedPointer.5", ptr %5, i32 0, i32 0
  %7 = getelementptr inbounds [8 x i8], ptr %6, i64 0, i64 0
  call void @llvm.memcpy.p0.p0.i64(ptr align 8 %7, ptr align 8 %4, i64 8, i1 false)
  ret ptr %5
}

; Function Attrs: mustprogress nounwind uwtable
define linkonce_odr hidden void @_ZN4llvm14PointerIntPairIPvLj1EiNS_20pointer_union_detail22PointerUnionUIntTraitsIJPKN5clang27ASTTemplateArgumentListInfoEPNS4_25ExplicitInstantiationInfoEEEENS_18PointerIntPairInfoIS1_Lj1ESA_EEEC2Ev(ptr noundef nonnull align 8 dereferenceable(8) %0) unnamed_addr #0 comdat align 2 {
  %2 = alloca ptr, align 8
  store ptr %0, ptr %2, align 8
  %3 = load ptr, ptr %2, align 8
  %4 = getelementptr inbounds nuw %"class.llvm::PointerIntPair.474", ptr %3, i32 0, i32 0
  call void @_ZN4llvm6detail13PunnedPointerIPvEC2El(ptr noundef nonnull align 8 dereferenceable(8) %4, i64 noundef 0)
  ret void
}

; Function Attrs: mustprogress nounwind uwtable
define linkonce_odr hidden void @_ZN4llvm6detail13PunnedPointerIPvEC2El(ptr noundef nonnull align 8 dereferenceable(8) %0, i64 noundef %1) unnamed_addr #0 comdat align 2 {
  %3 = alloca ptr, align 8
  %4 = alloca i64, align 8
  store ptr %0, ptr %3, align 8
  store i64 %1, ptr %4, align 8
  %5 = load ptr, ptr %3, align 8
  %6 = load i64, ptr %4, align 8
  %7 = call noundef nonnull align 8 dereferenceable(8) ptr @_ZN4llvm6detail13PunnedPointerIPvEaSEl(ptr noundef nonnull align 8 dereferenceable(8) %5, i64 noundef %6)
  ret void
}

; Function Attrs: mustprogress nounwind uwtable
define linkonce_odr hidden void @_ZN4llvm20pointer_union_detail19PointerUnionMembersINS_12PointerUnionIJPKN5clang27ASTTemplateArgumentListInfoEPNS3_25ExplicitInstantiationInfoEEEENS_14PointerIntPairIPvLj1EiNS0_22PointerUnionUIntTraitsIJS6_S8_EEENS_18PointerIntPairInfoISB_Lj1ESD_EEEELi2EJEEC2Ev(ptr noundef nonnull align 8 dereferenceable(8) %0) unnamed_addr #0 comdat align 2 {
  %2 = alloca ptr, align 8
  store ptr %0, ptr %2, align 8
  %3 = load ptr, ptr %2, align 8
  %4 = getelementptr inbounds nuw %"class.llvm::pointer_union_detail::PointerUnionMembers.473", ptr %3, i32 0, i32 0
  call void @_ZN4llvm14PointerIntPairIPvLj1EiNS_20pointer_union_detail22PointerUnionUIntTraitsIJPKN5clang27ASTTemplateArgumentListInfoEPNS4_25ExplicitInstantiationInfoEEEENS_18PointerIntPairInfoIS1_Lj1ESA_EEEC2Ev(ptr noundef nonnull align 8 dereferenceable(8) %4)
  ret void
}

; Function Attrs: mustprogress nounwind uwtable
define linkonce_odr hidden void @_ZN4llvm14PointerIntPairIPvLj1EiNS_20pointer_union_detail22PointerUnionUIntTraitsIJPN5clang17ClassTemplateDeclEPNS4_31ClassTemplateSpecializationDecl32SpecializedPartialSpecializationEEEENS_18PointerIntPairInfoIS1_Lj1ESA_EEEC2Ev(ptr noundef nonnull align 8 dereferenceable(8) %0) unnamed_addr #0 comdat align 2 {
  %2 = alloca ptr, align 8
  store ptr %0, ptr %2, align 8
  %3 = load ptr, ptr %2, align 8
  %4 = getelementptr inbounds nuw %"class.llvm::PointerIntPair.469", ptr %3, i32 0, i32 0
  call void @_ZN4llvm6detail13PunnedPointerIPvEC2El(ptr noundef nonnull align 8 dereferenceable(8) %4, i64 noundef 0)
  ret void
}

; Function Attrs: mustprogress nounwind uwtable
define linkonce_odr hidden void @_ZN4llvm20pointer_union_detail19PointerUnionMembersINS_12PointerUnionIJPKN5clang27ASTTemplateArgumentListInfoEPNS3_25ExplicitInstantiationInfoEEEENS_14PointerIntPairIPvLj1EiNS0_22PointerUnionUIntTraitsIJS6_S8_EEENS_18PointerIntPairInfoISB_Lj1ESD_EEEELi1EJS8_EEC2Ev(ptr noundef nonnull align 8 dereferenceable(8) %0) unnamed_addr #0 comdat align 2 {
  %2 = alloca ptr, align 8
  store ptr %0, ptr %2, align 8
  %3 = load ptr, ptr %2, align 8
  call void @_ZN4llvm20pointer_union_detail19PointerUnionMembersINS_12PointerUnionIJPKN5clang27ASTTemplateArgumentListInfoEPNS3_25ExplicitInstantiationInfoEEEENS_14PointerIntPairIPvLj1EiNS0_22PointerUnionUIntTraitsIJS6_S8_EEENS_18PointerIntPairInfoISB_Lj1ESD_EEEELi2EJEEC2Ev(ptr noundef nonnull align 8 dereferenceable(8) %3)
  ret void
}

; Function Attrs: mustprogress nounwind uwtable
define linkonce_odr hidden void @_ZN4llvm20pointer_union_detail19PointerUnionMembersINS_12PointerUnionIJPN5clang17ClassTemplateDeclEPNS3_31ClassTemplateSpecializationDecl32SpecializedPartialSpecializationEEEENS_14PointerIntPairIPvLj1EiNS0_22PointerUnionUIntTraitsIJS5_S8_EEENS_18PointerIntPairInfoISB_Lj1ESD_EEEELi2EJEEC2Ev(ptr noundef nonnull align 8 dereferenceable(8) %0) unnamed_addr #0 comdat align 2 {
  %2 = alloca ptr, align 8
  store ptr %0, ptr %2, align 8
  %3 = load ptr, ptr %2, align 8
  %4 = getelementptr inbounds nuw %"class.llvm::pointer_union_detail::PointerUnionMembers.468", ptr %3, i32 0, i32 0
  call void @_ZN4llvm14PointerIntPairIPvLj1EiNS_20pointer_union_detail22PointerUnionUIntTraitsIJPN5clang17ClassTemplateDeclEPNS4_31ClassTemplateSpecializationDecl32SpecializedPartialSpecializationEEEENS_18PointerIntPairInfoIS1_Lj1ESA_EEEC2Ev(ptr noundef nonnull align 8 dereferenceable(8) %4)
  ret void
}

; Function Attrs: mustprogress nounwind uwtable
define linkonce_odr hidden void @_ZN4llvm20pointer_union_detail19PointerUnionMembersINS_12PointerUnionIJPKN5clang27ASTTemplateArgumentListInfoEPNS3_25ExplicitInstantiationInfoEEEENS_14PointerIntPairIPvLj1EiNS0_22PointerUnionUIntTraitsIJS6_S8_EEENS_18PointerIntPairInfoISB_Lj1ESD_EEEELi0EJS6_S8_EEC2Ev(ptr noundef nonnull align 8 dereferenceable(8) %0) unnamed_addr #0 comdat align 2 {
  %2 = alloca ptr, align 8
  store ptr %0, ptr %2, align 8
  %3 = load ptr, ptr %2, align 8
  call void @_ZN4llvm20pointer_union_detail19PointerUnionMembersINS_12PointerUnionIJPKN5clang27ASTTemplateArgumentListInfoEPNS3_25ExplicitInstantiationInfoEEEENS_14PointerIntPairIPvLj1EiNS0_22PointerUnionUIntTraitsIJS6_S8_EEENS_18PointerIntPairInfoISB_Lj1ESD_EEEELi1EJS8_EEC2Ev(ptr noundef nonnull align 8 dereferenceable(8) %3)
  ret void
}

; Function Attrs: mustprogress nounwind uwtable
define linkonce_odr hidden void @_ZN4llvm20pointer_union_detail19PointerUnionMembersINS_12PointerUnionIJPN5clang17ClassTemplateDeclEPNS3_31ClassTemplateSpecializationDecl32SpecializedPartialSpecializationEEEENS_14PointerIntPairIPvLj1EiNS0_22PointerUnionUIntTraitsIJS5_S8_EEENS_18PointerIntPairInfoISB_Lj1ESD_EEEELi1EJS8_EEC2Ev(ptr noundef nonnull align 8 dereferenceable(8) %0) unnamed_addr #0 comdat align 2 {
  %2 = alloca ptr, align 8
  store ptr %0, ptr %2, align 8
  %3 = load ptr, ptr %2, align 8
  call void @_ZN4llvm20pointer_union_detail19PointerUnionMembersINS_12PointerUnionIJPN5clang17ClassTemplateDeclEPNS3_31ClassTemplateSpecializationDecl32SpecializedPartialSpecializationEEEENS_14PointerIntPairIPvLj1EiNS0_22PointerUnionUIntTraitsIJS5_S8_EEENS_18PointerIntPairInfoISB_Lj1ESD_EEEELi2EJEEC2Ev(ptr noundef nonnull align 8 dereferenceable(8) %3)
  ret void
}

; Function Attrs: mustprogress nounwind uwtable
define linkonce_odr hidden void @_ZN4llvm12PointerUnionIJPKN5clang27ASTTemplateArgumentListInfoEPNS1_25ExplicitInstantiationInfoEEEC2Ev(ptr noundef nonnull align 8 dereferenceable(8) %0) unnamed_addr #0 comdat align 2 {
  %2 = alloca ptr, align 8
  store ptr %0, ptr %2, align 8
  %3 = load ptr, ptr %2, align 8
  call void @_ZN4llvm20pointer_union_detail19PointerUnionMembersINS_12PointerUnionIJPKN5clang27ASTTemplateArgumentListInfoEPNS3_25ExplicitInstantiationInfoEEEENS_14PointerIntPairIPvLj1EiNS0_22PointerUnionUIntTraitsIJS6_S8_EEENS_18PointerIntPairInfoISB_Lj1ESD_EEEELi0EJS6_S8_EEC2Ev(ptr noundef nonnull align 8 dereferenceable(8) %3)
  ret void
}

; Function Attrs: mustprogress nounwind uwtable
define linkonce_odr hidden void @_ZN4llvm20pointer_union_detail19PointerUnionMembersINS_12PointerUnionIJPN5clang17ClassTemplateDeclEPNS3_31ClassTemplateSpecializationDecl32SpecializedPartialSpecializationEEEENS_14PointerIntPairIPvLj1EiNS0_22PointerUnionUIntTraitsIJS5_S8_EEENS_18PointerIntPairInfoISB_Lj1ESD_EEEELi0EJS5_S8_EEC2Ev(ptr noundef nonnull align 8 dereferenceable(8) %0) unnamed_addr #0 comdat align 2 {
  %2 = alloca ptr, align 8
  store ptr %0, ptr %2, align 8
  %3 = load ptr, ptr %2, align 8
  call void @_ZN4llvm20pointer_union_detail19PointerUnionMembersINS_12PointerUnionIJPN5clang17ClassTemplateDeclEPNS3_31ClassTemplateSpecializationDecl32SpecializedPartialSpecializationEEEENS_14PointerIntPairIPvLj1EiNS0_22PointerUnionUIntTraitsIJS5_S8_EEENS_18PointerIntPairInfoISB_Lj1ESD_EEEELi1EJS8_EEC2Ev(ptr noundef nonnull align 8 dereferenceable(8) %3)
  ret void
}

; Function Attrs: mustprogress nounwind uwtable
define linkonce_odr hidden void @_ZN4llvm12PointerUnionIJPKN5clang27ASTTemplateArgumentListInfoEPNS1_25ExplicitInstantiationInfoEEEC2EDn(ptr noundef nonnull align 8 dereferenceable(8) %0, ptr %1) unnamed_addr #0 comdat align 2 {
  %3 = alloca ptr, align 8
  %4 = alloca ptr, align 8
  store ptr %0, ptr %3, align 8
  store ptr %1, ptr %4, align 8
  %5 = load ptr, ptr %3, align 8
  call void @llvm.memset.p0.i64(ptr align 8 %5, i8 0, i64 8, i1 false)
  call void @_ZN4llvm12PointerUnionIJPKN5clang27ASTTemplateArgumentListInfoEPNS1_25ExplicitInstantiationInfoEEEC2Ev(ptr noundef nonnull align 8 dereferenceable(8) %5)
  ret void
}

; Function Attrs: mustprogress nounwind uwtable
define linkonce_odr hidden void @_ZN4llvm12PointerUnionIJPN5clang17ClassTemplateDeclEPNS1_31ClassTemplateSpecializationDecl32SpecializedPartialSpecializationEEEC2Ev(ptr noundef nonnull align 8 dereferenceable(8) %0) unnamed_addr #0 comdat align 2 {
  %2 = alloca ptr, align 8
  store ptr %0, ptr %2, align 8
  %3 = load ptr, ptr %2, align 8
  call void @_ZN4llvm20pointer_union_detail19PointerUnionMembersINS_12PointerUnionIJPN5clang17ClassTemplateDeclEPNS3_31ClassTemplateSpecializationDecl32SpecializedPartialSpecializationEEEENS_14PointerIntPairIPvLj1EiNS0_22PointerUnionUIntTraitsIJS5_S8_EEENS_18PointerIntPairInfoISB_Lj1ESD_EEEELi0EJS5_S8_EEC2Ev(ptr noundef nonnull align 8 dereferenceable(8) %3)
  ret void
}

; Function Attrs: mustprogress nounwind uwtable
define linkonce_odr hidden void @_ZN4llvm14FoldingSetBase4NodeC2Ev(ptr noundef nonnull align 8 dereferenceable(8) %0) unnamed_addr #0 comdat align 2 {
  %2 = alloca ptr, align 8
  store ptr %0, ptr %2, align 8
  %3 = load ptr, ptr %2, align 8
  %4 = getelementptr inbounds nuw %"class.llvm::FoldingSetBase::Node", ptr %3, i32 0, i32 0
  store ptr null, ptr %4, align 8
  ret void
}

; Function Attrs: mustprogress nounwind uwtable
define linkonce_odr hidden void @_ZN5clang14SourceLocationC2Ev(ptr noundef nonnull align 4 dereferenceable(4) %0) unnamed_addr #0 comdat align 2 {
  %2 = alloca ptr, align 8
  store ptr %0, ptr %2, align 8
  %3 = load ptr, ptr %2, align 8
  %4 = getelementptr inbounds nuw %"class.clang::SourceLocation", ptr %3, i32 0, i32 0
  store i32 0, ptr %4, align 4
  ret void
}

; Function Attrs: mustprogress nounwind uwtable
define dso_local void @_ZN5clang31ClassTemplateSpecializationDeclC2ERNS_10ASTContextENS_4Decl4KindE(ptr noundef nonnull align 8 dereferenceable(181) %0, ptr noundef nonnull align 8 dereferenceable(23096) %1, i32 noundef %2) unnamed_addr #0 align 2 {
  %4 = alloca ptr, align 8
  %5 = alloca ptr, align 8
  %6 = alloca i32, align 4
  %7 = alloca %"class.clang::SourceLocation", align 4
  %8 = alloca %"class.clang::SourceLocation", align 4
  store ptr %0, ptr %4, align 8
  store ptr %1, ptr %5, align 8
  store i32 %2, ptr %6, align 4
  %9 = load ptr, ptr %4, align 8
  %10 = load i32, ptr %6, align 4
  %11 = load ptr, ptr %5, align 8
  call void @llvm.memset.p0.i64(ptr align 4 %7, i8 0, i64 4, i1 false)
  call void @_ZN5clang14SourceLocationC2Ev(ptr noundef nonnull align 4 dereferenceable(4) %7) #7
  call void @llvm.memset.p0.i64(ptr align 4 %8, i8 0, i64 4, i1 false)
  call void @_ZN5clang14SourceLocationC2Ev(ptr noundef nonnull align 4 dereferenceable(4) %8) #7
  %12 = getelementptr inbounds nuw %"class.clang::SourceLocation", ptr %7, i32 0, i32 0
  %13 = load i32, ptr %12, align 4
  %14 = getelementptr inbounds nuw %"class.clang::SourceLocation", ptr %8, i32 0, i32 0
  %15 = load i32, ptr %14, align 4
  call void @_ZN5clang13CXXRecordDeclC2ENS_4Decl4KindENS_11TagTypeKindERKNS_10ASTContextEPNS_11DeclContextENS_14SourceLocationES9_PNS_14IdentifierInfoEPS0_(ptr noundef nonnull align 8 dereferenceable(144) %9, i32 noundef %10, i32 noundef 0, ptr noundef nonnull align 8 dereferenceable(23096) %11, ptr noundef null, i32 %13, i32 %15, ptr noundef null, ptr noundef null)
  %16 = getelementptr inbounds i8, ptr %9, i64 144
  call void @_ZN4llvm14FoldingSetBase4NodeC2Ev(ptr noundef nonnull align 8 dereferenceable(8) %16) #7
  store ptr getelementptr inbounds inrange(-16, 112) ({ [16 x ptr] }, ptr @_ZTVN5clang31ClassTemplateSpecializationDeclE, i32 0, i32 0, i32 2), ptr %9, align 8
  %17 = getelementptr inbounds nuw %"class.clang::ClassTemplateSpecializationDecl", ptr %9, i32 0, i32 2
  call void @_ZN4llvm12PointerUnionIJPN5clang17ClassTemplateDeclEPNS1_31ClassTemplateSpecializationDecl32SpecializedPartialSpecializationEEEC2Ev(ptr noundef nonnull align 8 dereferenceable(8) %17)
  %18 = getelementptr inbounds nuw %"class.clang::ClassTemplateSpecializationDecl", ptr %9, i32 0, i32 3
  call void @_ZN4llvm12PointerUnionIJPKN5clang27ASTTemplateArgumentListInfoEPNS1_25ExplicitInstantiationInfoEEEC2EDn(ptr noundef nonnull align 8 dereferenceable(8) %18, ptr null)
  %19 = getelementptr inbounds nuw %"class.clang::ClassTemplateSpecializationDecl", ptr %9, i32 0, i32 5
  call void @_ZN5clang14SourceLocationC2Ev(ptr noundef nonnull align 4 dereferenceable(4) %19) #7
  %20 = getelementptr inbounds nuw %"class.clang::ClassTemplateSpecializationDecl", ptr %9, i32 0, i32 6
  %21 = load i8, ptr %20, align 4
  %22 = and i8 %21, -8
  %23 = or i8 %22, 0
  store i8 %23, ptr %20, align 4
  ret void
}