; Function Attrs: mustprogress nounwind uwtable
define dso_local void @_ZN5clang31ClassTemplateSpecializationDeclC2ERNS_10ASTContextENS_4Decl4KindE(ptr noundef nonnull align 8 dereferenceable(181) %0, ptr noundef nonnull align 8 dereferenceable(23096) %1, i32 noundef %2) unnamed_addr #0 align 2 {
  tail call void @_ZN5clang13CXXRecordDeclC2ENS_4Decl4KindENS_11TagTypeKindERKNS_10ASTContextEPNS_11DeclContextENS_14SourceLocationES9_PNS_14IdentifierInfoEPS0_(ptr noundef nonnull align 8 dereferenceable(144) %0, i32 noundef %2, i32 noundef 0, ptr noundef nonnull align 8 dereferenceable(23096) %1, ptr noundef null, i32 0, i32 0, ptr noundef null, ptr noundef null) #21
  %4 = getelementptr inbounds nuw i8, ptr %0, i64 144
  store ptr null, ptr %4, align 8
  store ptr getelementptr inbounds nuw inrange(-16, 112) (i8, ptr @_ZTVN5clang31ClassTemplateSpecializationDeclE, i64 16), ptr %0, align 8
  %5 = getelementptr inbounds nuw i8, ptr %0, i64 152
  %6 = getelementptr inbounds nuw i8, ptr %0, i64 176
  store i32 0, ptr %6, align 8
  %7 = getelementptr inbounds nuw i8, ptr %0, i64 180
  tail call void @llvm.memset.p0.i64(ptr noundef nonnull align 8 dereferenceable(16) %5, i8 0, i64 16, i1 false)
  %8 = load i8, ptr %7, align 4
  %9 = and i8 %8, -8
  store i8 %9, ptr %7, align 4
  ret void
}